; ModuleID = '60/1687.c'
source_filename = "60/1687.c"
target datalayout = "e-m:e-p270:32:32-p271:32:32-p272:64:64-i64:64-f80:128-n8:16:32:64-S128"
target triple = "x86_64-pc-linux-gnu"

@.str = private unnamed_addr constant [3 x i8] c"%d\00", align 1
@.str.1 = private unnamed_addr constant [7 x i8] c"%d %d\0A\00", align 1
@.str.2 = private unnamed_addr constant [6 x i8] c"empty\00", align 1

; Function Attrs: noinline nounwind uwtable
define dso_local i32 @main(i32 %0, i8** %1) #0 {
  %3 = alloca i32, align 4
  %4 = alloca i32, align 4
  %5 = alloca i8**, align 8
  %6 = alloca i32, align 4
  %7 = alloca i32, align 4
  %8 = alloca i32, align 4
  %9 = alloca i32, align 4
  %10 = alloca i32, align 4
  %11 = alloca i32, align 4
  %12 = alloca i32, align 4
  store i32 0, i32* %3, align 4
  store i32 %0, i32* %4, align 4
  store i8** %1, i8*** %5, align 8
  %13 = call i32 (i8*, ...) @__isoc99_scanf(i8* getelementptr inbounds ([3 x i8], [3 x i8]* @.str, i64 0, i64 0), i32* %8)
  store i32 0, i32* %6, align 4
  store i32 3, i32* %11, align 4
  br label %14

14:                                               ; preds = %67, %2
  %15 = load i32, i32* %11, align 4
  %16 = load i32, i32* %8, align 4
  %17 = sub nsw i32 %16, 1
  %18 = icmp slt i32 %15, %17
  br i1 %18, label %19, label %70

19:                                               ; preds = %14
  store i32 0, i32* %7, align 4
  store i32 0, i32* %12, align 4
  store i32 2, i32* %9, align 4
  br label %20

20:                                               ; preds = %33, %19
  %21 = load i32, i32* %9, align 4
  %22 = load i32, i32* %11, align 4
  %23 = icmp slt i32 %21, %22
  br i1 %23, label %24, label %36

24:                                               ; preds = %20
  %25 = load i32, i32* %11, align 4
  %26 = load i32, i32* %9, align 4
  %27 = srem i32 %25, %26
  %28 = icmp eq i32 %27, 0
  br i1 %28, label %29, label %32

29:                                               ; preds = %24
  %30 = load i32, i32* %7, align 4
  %31 = add nsw i32 %30, 1
  store i32 %31, i32* %7, align 4
  br label %32

32:                                               ; preds = %29, %24
  br label %33

33:                                               ; preds = %32
  %34 = load i32, i32* %9, align 4
  %35 = add nsw i32 %34, 1
  store i32 %35, i32* %9, align 4
  br label %20

36:                                               ; preds = %20
  %37 = load i32, i32* %11, align 4
  %38 = add nsw i32 %37, 2
  store i32 %38, i32* %10, align 4
  store i32 2, i32* %9, align 4
  br label %39

39:                                               ; preds = %52, %36
  %40 = load i32, i32* %9, align 4
  %41 = load i32, i32* %10, align 4
  %42 = icmp slt i32 %40, %41
  br i1 %42, label %43, label %55

43:                                               ; preds = %39
  %44 = load i32, i32* %10, align 4
  %45 = load i32, i32* %9, align 4
  %46 = srem i32 %44, %45
  %47 = icmp eq i32 %46, 0
  br i1 %47, label %48, label %51

48:                                               ; preds = %43
  %49 = load i32, i32* %12, align 4
  %50 = add nsw i32 %49, 1
  store i32 %50, i32* %12, align 4
  br label %51

51:                                               ; preds = %48, %43
  br label %52

52:                                               ; preds = %51
  %53 = load i32, i32* %9, align 4
  %54 = add nsw i32 %53, 1
  store i32 %54, i32* %9, align 4
  br label %39

55:                                               ; preds = %39
  %56 = load i32, i32* %7, align 4
  %57 = load i32, i32* %12, align 4
  %58 = add nsw i32 %56, %57
  %59 = icmp eq i32 %58, 0
  br i1 %59, label %60, label %66

60:                                               ; preds = %55
  %61 = load i32, i32* %6, align 4
  %62 = add nsw i32 %61, 1
  store i32 %62, i32* %6, align 4
  %63 = load i32, i32* %11, align 4
  %64 = load i32, i32* %10, align 4
  %65 = call i32 (i8*, ...) @printf(i8* getelementptr inbounds ([7 x i8], [7 x i8]* @.str.1, i64 0, i64 0), i32 %63, i32 %64)
  br label %66

66:                                               ; preds = %60, %55
  br label %67

67:                                               ; preds = %66
  %68 = load i32, i32* %11, align 4
  %69 = add nsw i32 %68, 1
  store i32 %69, i32* %11, align 4
  br label %14

70:                                               ; preds = %14
  %71 = load i32, i32* %6, align 4
  %72 = icmp eq i32 %71, 0
  br i1 %72, label %73, label %75

73:                                               ; preds = %70
  %74 = call i32 (i8*, ...) @printf(i8* getelementptr inbounds ([6 x i8], [6 x i8]* @.str.2, i64 0, i64 0))
  br label %75

75:                                               ; preds = %73, %70
  ret i32 0
}

declare dso_local i32 @__isoc99_scanf(i8*, ...) #1

declare dso_local i32 @printf(i8*, ...) #1


!llvm.module.flags = !{!0}
!llvm.ident = !{!1}

!0 = !{i32 1, !"wchar_size", i32 4}
!1 = !{!"clang version 10.0.0-4ubuntu1 "}
